target datalayout = "e-m:e-p270:32:32-p271:32:32-p272:64:64-i64:64-i128:128-f80:128-n8:16:32:64-S128"
target triple = "x86_64-pc-linux-gnu"

%class.QFlags.7 = type { i32 }
%class.QEvent = type { ptr, i16, i8, i8, i8, i8, i16 }
%class.QFlag = type { i32 }

; Function Attrs: inlinehint mustprogress nounwind null_pointer_is_valid sspstrong uwtable
define linkonce_odr noundef i32 @_ZNK5QFlagcvjEv(ptr noundef align 4 dereferenceable_or_null(4) %0) #2 comdat align 2 {
  %2 = alloca ptr, align 8
  store ptr %0, ptr %2, align 8
  %3 = load ptr, ptr %2, align 8
  %4 = getelementptr inbounds nuw %class.QFlag, ptr %3, i32 0, i32 0
  %5 = load i32, ptr %4, align 4
  ret i32 %5
}

; Function Attrs: inlinehint mustprogress nounwind null_pointer_is_valid sspstrong uwtable
define linkonce_odr void @_ZN6QFlagsIN2Qt16KeyboardModifierEEC2E5QFlag(ptr noundef align 4 dereferenceable_or_null(4) %0, i32 %1) unnamed_addr #2 comdat align 2 {
  %3 = alloca %class.QFlag, align 4
  %4 = alloca ptr, align 8
  %5 = getelementptr inbounds nuw %class.QFlag, ptr %3, i32 0, i32 0
  store i32 %1, ptr %5, align 4
  store ptr %0, ptr %4, align 8
  %6 = load ptr, ptr %4, align 8
  %7 = getelementptr inbounds nuw %class.QFlags.7, ptr %6, i32 0, i32 0
  %8 = call noundef i32 @_ZNK5QFlagcvjEv(ptr noundef align 4 dereferenceable_or_null(4) %3) #19
  store i32 %8, ptr %7, align 4
  ret void
}

; Function Attrs: inlinehint mustprogress nounwind null_pointer_is_valid sspstrong uwtable
define linkonce_odr void @_ZN5QFlagC2Ej(ptr noundef align 4 dereferenceable_or_null(4) %0, i32 noundef %1) unnamed_addr #2 comdat align 2 {
  %3 = alloca ptr, align 8
  %4 = alloca i32, align 4
  store ptr %0, ptr %3, align 8
  store i32 %1, ptr %4, align 4
  %5 = load ptr, ptr %3, align 8
  %6 = getelementptr inbounds nuw %class.QFlag, ptr %5, i32 0, i32 0
  %7 = load i32, ptr %4, align 4
  store i32 %7, ptr %6, align 4
  ret void
}

; Function Attrs: inlinehint mustprogress nounwind null_pointer_is_valid sspstrong uwtable
define linkonce_odr i32 @_ZNK6QFlagsIN2Qt16KeyboardModifierEEorES1_(ptr noundef align 4 dereferenceable_or_null(4) %0, i32 noundef %1) #2 comdat align 2 {
  %3 = alloca %class.QFlags.7, align 4
  %4 = alloca ptr, align 8
  %5 = alloca i32, align 4
  %6 = alloca %class.QFlag, align 4
  store ptr %0, ptr %4, align 8
  store i32 %1, ptr %5, align 4
  %7 = load ptr, ptr %4, align 8
  %8 = getelementptr inbounds nuw %class.QFlags.7, ptr %7, i32 0, i32 0
  %9 = load i32, ptr %8, align 4
  %10 = load i32, ptr %5, align 4
  %11 = or i32 %9, %10
  call void @_ZN5QFlagC2Ej(ptr noundef align 4 dereferenceable_or_null(4) %6, i32 noundef %11) #19
  %12 = getelementptr inbounds nuw %class.QFlag, ptr %6, i32 0, i32 0
  %13 = load i32, ptr %12, align 4
  call void @_ZN6QFlagsIN2Qt16KeyboardModifierEEC2E5QFlag(ptr noundef align 4 dereferenceable_or_null(4) %3, i32 %13) #19
  %14 = getelementptr inbounds nuw %class.QFlags.7, ptr %3, i32 0, i32 0
  %15 = load i32, ptr %14, align 4
  ret i32 %15
}

; Function Attrs: inlinehint mustprogress nounwind null_pointer_is_valid sspstrong uwtable
define linkonce_odr void @_ZN6QFlagsIN2Qt16KeyboardModifierEEC2ES1_(ptr noundef align 4 dereferenceable_or_null(4) %0, i32 noundef %1) unnamed_addr #2 comdat align 2 {
  %3 = alloca ptr, align 8
  %4 = alloca i32, align 4
  store ptr %0, ptr %3, align 8
  store i32 %1, ptr %4, align 4
  %5 = load ptr, ptr %3, align 8
  %6 = getelementptr inbounds nuw %class.QFlags.7, ptr %5, i32 0, i32 0
  %7 = load i32, ptr %4, align 4
  store i32 %7, ptr %6, align 4
  ret void
}

; Function Attrs: inlinehint mustprogress nounwind null_pointer_is_valid sspstrong uwtable
define linkonce_odr void @_ZN6QEvent6acceptEv(ptr noundef align 8 dereferenceable_or_null(16) %0) #2 comdat align 2 {
  %2 = alloca ptr, align 8
  store ptr %0, ptr %2, align 8
  %3 = load ptr, ptr %2, align 8
  %4 = getelementptr inbounds nuw %class.QEvent, ptr %3, i32 0, i32 4
  store i8 1, ptr %4, align 4
  ret void
}

; Function Attrs: inlinehint mustprogress nounwind null_pointer_is_valid sspstrong uwtable
define linkonce_odr noundef zeroext i1 @_Zeq6QFlagsIN2Qt16KeyboardModifierEES2_(i32 %0, i32 %1) #2 comdat {
  %3 = alloca %class.QFlags.7, align 4
  %4 = alloca %class.QFlags.7, align 4
  %5 = getelementptr inbounds nuw %class.QFlags.7, ptr %3, i32 0, i32 0
  store i32 %0, ptr %5, align 4
  %6 = getelementptr inbounds nuw %class.QFlags.7, ptr %4, i32 0, i32 0
  store i32 %1, ptr %6, align 4
  %7 = getelementptr inbounds nuw %class.QFlags.7, ptr %3, i32 0, i32 0
  %8 = load i32, ptr %7, align 4
  %9 = getelementptr inbounds nuw %class.QFlags.7, ptr %4, i32 0, i32 0
  %10 = load i32, ptr %9, align 4
  %11 = icmp eq i32 %8, %10
  ret i1 %11
}

; Function Attrs: inlinehint mustprogress nounwind null_pointer_is_valid sspstrong uwtable
define linkonce_odr i32 @_ZN2QtorENS_16KeyboardModifierES0_(i32 noundef %0, i32 noundef %1) #2 comdat {
  %3 = alloca %class.QFlags.7, align 4
  %4 = alloca i32, align 4
  %5 = alloca i32, align 4
  %6 = alloca %class.QFlags.7, align 4
  store i32 %0, ptr %4, align 4
  store i32 %1, ptr %5, align 4
  call void @llvm.lifetime.start.p0(i64 4, ptr %6) #19
  %7 = load i32, ptr %4, align 4
  call void @_ZN6QFlagsIN2Qt16KeyboardModifierEEC2ES1_(ptr noundef align 4 dereferenceable_or_null(4) %6, i32 noundef %7) #19
  %8 = load i32, ptr %5, align 4
  %9 = call i32 @_ZNK6QFlagsIN2Qt16KeyboardModifierEEorES1_(ptr noundef align 4 dereferenceable_or_null(4) %6, i32 noundef %8) #19
  %10 = getelementptr inbounds nuw %class.QFlags.7, ptr %3, i32 0, i32 0
  store i32 %9, ptr %10, align 4
  call void @llvm.lifetime.end.p0(i64 4, ptr %6) #19
  %11 = getelementptr inbounds nuw %class.QFlags.7, ptr %3, i32 0, i32 0
  %12 = load i32, ptr %11, align 4
  ret i32 %12
}

; Function Attrs: inlinehint mustprogress nounwind null_pointer_is_valid sspstrong uwtable
define linkonce_odr noundef i32 @_ZNK6QEvent4typeEv(ptr noundef align 8 dereferenceable_or_null(16) %0) #2 comdat align 2 {
  %2 = alloca ptr, align 8
  store ptr %0, ptr %2, align 8
  %3 = load ptr, ptr %2, align 8
  %4 = getelementptr inbounds nuw %class.QEvent, ptr %3, i32 0, i32 1
  %5 = load i16, ptr %4, align 8
  %6 = zext i16 %5 to i32
  ret i32 %6
}

; Function Attrs: mustprogress null_pointer_is_valid sspstrong uwtable
define noundef zeroext i1 @_ZN14SyntaxLineEdit5eventEP6QEvent(ptr noundef align 8 dereferenceable_or_null(185) %0, ptr noundef %1) unnamed_addr #0 align 2 {
  %3 = alloca i1, align 1
  %4 = alloca ptr, align 8
  %5 = alloca ptr, align 8
  %6 = alloca ptr, align 8
  %7 = alloca %class.QFlags.7, align 4
  %8 = alloca %class.QFlags.7, align 4
  %9 = alloca i32, align 4
  store ptr %0, ptr %4, align 8
  store ptr %1, ptr %5, align 8
  %10 = load ptr, ptr %4, align 8
  %11 = load ptr, ptr %5, align 8
  %12 = call noundef i32 @_ZNK6QEvent4typeEv(ptr noundef align 8 dereferenceable_or_null(16) %11)
  %13 = icmp eq i32 %12, 51
  br i1 %13, label %14, label %32

14:                                               ; preds = %2
  call void @llvm.lifetime.start.p0(i64 8, ptr %6) #19
  %15 = load ptr, ptr %5, align 8
  store ptr %15, ptr %6, align 8
  %16 = load ptr, ptr %6, align 8
  %17 = call i32 @_ZNK9QKeyEvent9modifiersEv(ptr noundef align 8 dereferenceable_or_null(82) %16)
  %18 = getelementptr inbounds nuw %class.QFlags.7, ptr %7, i32 0, i32 0
  store i32 %17, ptr %18, align 4
  %19 = call i32 @_ZN2QtorENS_16KeyboardModifierES0_(i32 noundef 67108864, i32 noundef 134217728) #19
  %20 = getelementptr inbounds nuw %class.QFlags.7, ptr %8, i32 0, i32 0
  store i32 %19, ptr %20, align 4
  %21 = getelementptr inbounds nuw %class.QFlags.7, ptr %7, i32 0, i32 0
  %22 = load i32, ptr %21, align 4
  %23 = getelementptr inbounds nuw %class.QFlags.7, ptr %8, i32 0, i32 0
  %24 = load i32, ptr %23, align 4
  %25 = call noundef zeroext i1 @_Zeq6QFlagsIN2Qt16KeyboardModifierEES2_(i32 %22, i32 %24) #19
  br i1 %25, label %26, label %28

26:                                               ; preds = %14
  %27 = load ptr, ptr %5, align 8
  call void @_ZN6QEvent6acceptEv(ptr noundef align 8 dereferenceable_or_null(16) %27)
  store i1 true, ptr %3, align 1
  store i32 1, ptr %9, align 4
  br label %29

28:                                               ; preds = %14
  store i32 0, ptr %9, align 4
  br label %29

29:                                               ; preds = %28, %26
  call void @llvm.lifetime.end.p0(i64 8, ptr %6) #19
  %30 = load i32, ptr %9, align 4
  switch i32 %30, label %37 [
    i32 0, label %31
    i32 1, label %35
  ]

31:                                               ; preds = %29
  br label %32

32:                                               ; preds = %31, %2
  %33 = load ptr, ptr %5, align 8
  %34 = call noundef zeroext i1 @_ZN9QLineEdit5eventEP6QEvent(ptr noundef align 8 dereferenceable_or_null(40) %10, ptr noundef %33)
  store i1 %34, ptr %3, align 1
  br label %35

35:                                               ; preds = %32, %29
  %36 = load i1, ptr %3, align 1
  ret i1 %36

37:                                               ; preds = %29
  unreachable
}