; Function Attrs: mustprogress null_pointer_is_valid sspstrong uwtable
define noundef zeroext i1 @_ZN14SyntaxLineEdit5eventEP6QEvent(ptr noundef align 8 dereferenceable_or_null(185) %0, ptr noundef %1) unnamed_addr #0 align 2 {
  %3 = getelementptr inbounds nuw i8, ptr %1, i64 8
  %4 = load i16, ptr %3, align 8
  %5 = icmp eq i16 %4, 51
  br i1 %5, label %6, label %.thread

6:                                                ; preds = %2
  %7 = tail call i32 @_ZNK9QKeyEvent9modifiersEv(ptr noundef align 8 dereferenceable_or_null(82) %1)
  %8 = icmp eq i32 %7, 201326592
  br i1 %8, label %9, label %.thread

9:                                                ; preds = %6
  %10 = getelementptr inbounds nuw i8, ptr %1, i64 12
  store i8 1, ptr %10, align 4
  br label %12

.thread:                                          ; preds = %6, %2
  %11 = tail call noundef zeroext i1 @_ZN9QLineEdit5eventEP6QEvent(ptr noundef align 8 dereferenceable_or_null(40) %0, ptr noundef %1)
  br label %12

12:                                               ; preds = %9, %.thread
  %.1 = phi i1 [ true, %9 ], [ %11, %.thread ]
  ret i1 %.1
}